Certificate:
    Data:
        Version: 3 (0x2)
        Serial Number:
            d7:d8:ec:5a:eb:2f:9d:9e:79:6a:09:ae:bf:a9:0d:eb
    Signature Algorithm: sha256WithRSAEncryption
        Issuer: CN=openvpnServer
        Validity
            Not Before: Jul  3 14:09:35 2019 GMT
            Not After : Jun 30 14:09:35 2029 GMT
        Subject: CN=client1
        Subject Public Key Info:
            Public Key Algorithm: rsaEncryption
                Public-Key: (2048 bit)
                Modulus:
                    00:dd:a9:dc:2e:9f:fa:ae:38:a3:14:e3:56:de:62:
                    95:23:bb:8b:03:51:8c:c6:62:de:38:13:e5:45:f8:
                    3c:c6:ff:cf:79:6e:af:5e:96:f9:ad:39:fc:d2:00:
                    f2:12:27:08:74:0a:dd:75:3d:c8:b9:e9:7e:21:d0:
                    27:b1:02:8a:b4:cb:9c:88:3d:95:84:bb:90:e3:b9:
                    0c:73:b8:96:3b:cb:c7:96:2d:7e:a8:63:73:0b:28:
                    49:ee:5d:1b:4e:fa:f8:6d:04:87:c5:be:7d:8c:1b:
                    87:0e:5e:31:89:ec:33:e6:78:00:1a:4d:9f:52:a2:
                    7f:4f:f1:0d:31:f2:9b:f5:e8:dc:2d:64:fe:f1:5a:
                    2f:cc:97:90:b5:89:9e:55:1e:32:08:78:b8:f6:1d:
                    b9:71:8a:08:9f:00:d4:19:2a:07:7e:3e:37:9b:e8:
                    74:b0:38:25:68:d7:53:12:f0:f7:88:96:cb:c2:26:
                    9d:72:86:ff:bc:8a:59:a0:f0:40:7d:11:f2:ab:3d:
                    e3:ec:9e:de:d4:6f:4c:71:e4:b7:72:1a:92:9d:9a:
                    ea:5e:66:37:63:3f:f0:05:c1:48:04:e5:02:d4:fd:
                    6c:25:e4:ac:83:83:96:39:ef:d5:eb:29:a8:17:ad:
                    fc:5b:89:81:df:66:19:18:b4:b5:85:8b:3a:35:1c:
                    75:79
                Exponent: 65537 (0x10001)
        X509v3 extensions:
            X509v3 Basic Constraints: 
                CA:FALSE
            X509v3 Subject Key Identifier: 
                83:22:58:C0:78:B4:0E:23:0F:04:A8:2C:68:D0:7C:63:44:63:9A:75
            X509v3 Authority Key Identifier: 
                keyid:7D:20:1E:69:D8:E6:04:92:60:0A:25:CD:23:70:16:D1:01:E0:EB:01
                DirName:/CN=openvpnServer
                serial:C8:D0:7A:02:7F:17:7B:26

            X509v3 Extended Key Usage: 
                TLS Web Client Authentication
            X509v3 Key Usage: 
                Digital Signature
    Signature Algorithm: sha256WithRSAEncryption
         6c:e3:0f:79:f7:da:68:fd:a7:ed:12:1b:bb:a4:7a:cd:b8:88:
         b4:81:4c:7f:e1:eb:8b:e0:09:48:b6:24:4b:23:90:8d:25:42:
         37:d0:af:35:4c:67:19:9f:2a:59:b8:c9:41:c2:93:b2:6c:82:
         53:de:b8:28:45:49:b6:8d:67:78:e1:59:94:12:04:78:af:a8:
         02:36:ef:25:b1:aa:cf:fd:28:9c:96:e0:92:9d:db:08:d7:a3:
         ae:ef:7e:ad:86:bc:ea:b5:87:c7:42:6a:95:cd:66:c0:2a:66:
         c0:d8:74:e2:33:da:59:3b:b4:79:3f:3c:99:24:da:65:a0:9b:
         0a:bf:1a:e1:93:a5:b9:ac:ed:26:25:dd:60:75:50:8b:10:91:
         7c:e5:57:aa:e7:02:29:95:12:22:c9:43:69:15:f0:b4:56:f5:
         92:47:c4:8a:fa:3e:25:9a:46:54:40:a4:45:7f:10:ec:bf:0a:
         83:c9:e2:eb:fa:c4:72:cb:8e:c6:c4:55:27:75:a8:d8:0b:b7:
         d6:66:c1:d7:f7:7f:0d:ec:13:32:aa:21:69:60:6a:66:e4:b0:
         c1:c6:57:4d:3d:7d:a4:34:0d:38:fb:a6:61:ba:59:fe:8b:04:
         94:6e:ba:20:35:2b:e0:21:90:b5:4f:c2:be:84:70:47:84:41:
         26:33:cb:b3
-----BEGIN CERTIFICATE-----
MIIDTzCCAjegAwIBAgIRANfY7FrrL52eeWoJrr+pDeswDQYJKoZIhvcNAQELBQAw
GDEWMBQGA1UEAwwNb3BlbnZwblNlcnZlcjAeFw0xOTA3MDMxNDA5MzVaFw0yOTA2
MzAxNDA5MzVaMBIxEDAOBgNVBAMMB2NsaWVudDEwggEiMA0GCSqGSIb3DQEBAQUA
A4IBDwAwggEKAoIBAQDdqdwun/quOKMU41beYpUju4sDUYzGYt44E+VF+DzG/895
bq9elvmtOfzSAPISJwh0Ct11Pci56X4h0CexAoq0y5yIPZWEu5DjuQxzuJY7y8eW
LX6oY3MLKEnuXRtO+vhtBIfFvn2MG4cOXjGJ7DPmeAAaTZ9Son9P8Q0x8pv16Nwt
ZP7xWi/Ml5C1iZ5VHjIIeLj2HblxigifANQZKgd+Pjeb6HSwOCVo11MS8PeIlsvC
Jp1yhv+8ilmg8EB9EfKrPePsnt7Ub0xx5LdyGpKdmupeZjdjP/AFwUgE5QLU/Wwl
5KyDg5Y579XrKagXrfxbiYHfZhkYtLWFizo1HHV5AgMBAAGjgZkwgZYwCQYDVR0T
BAIwADAdBgNVHQ4EFgQUgyJYwHi0DiMPBKgsaNB8Y0RjmnUwSAYDVR0jBEEwP4AU
fSAeadjmBJJgCiXNI3AW0QHg6wGhHKQaMBgxFjAUBgNVBAMMDW9wZW52cG5TZXJ2
ZXKCCQDI0HoCfxd7JjATBgNVHSUEDDAKBggrBgEFBQcDAjALBgNVHQ8EBAMCB4Aw
DQYJKoZIhvcNAQELBQADggEBAGzjD3n32mj9p+0SG7ukes24iLSBTH/h64vgCUi2
JEsjkI0lQjfQrzVMZxmfKlm4yUHCk7JsglPeuChFSbaNZ3jhWZQSBHivqAI27yWx
qs/9KJyW4JKd2wjXo67vfq2GvOq1h8dCapXNZsAqZsDYdOIz2lk7tHk/PJkk2mWg
mwq/GuGTpbms7SYl3WB1UIsQkXzlV6rnAimVEiLJQ2kV8LRW9ZJHxIr6PiWaRlRA
pEV/EOy/CoPJ4uv6xHLLjsbEVSd1qNgLt9Zmwdf3fw3sEzKqIWlgambksMHGV009
faQ0DTj7pmG6Wf6LBJRuuiA1K+AhkLVPwr6EcEeEQSYzy7M=
-----END CERTIFICATE-----
