Certificate:
    Data:
        Version: 3 (0x2)
        Serial Number:
            40:2c:07:84:4b:92:b5:b5:50:b8:8f:55:ce:fd:a5:e8
    Signature Algorithm: sha256WithRSAEncryption
        Issuer: CN=openvpnServer
        Validity
            Not Before: Jul  3 14:10:06 2019 GMT
            Not After : Jun 30 14:10:06 2029 GMT
        Subject: CN=client2
        Subject Public Key Info:
            Public Key Algorithm: rsaEncryption
                Public-Key: (2048 bit)
                Modulus:
                    00:ae:c2:34:1a:6b:f9:1c:70:ed:49:0b:0b:b5:d8:
                    41:63:35:bd:36:8e:93:41:48:a3:5d:0f:bd:33:bb:
                    a6:77:b6:80:f3:2c:33:35:0b:af:5e:0b:ec:da:2a:
                    52:bb:43:3c:69:df:dd:47:d1:55:88:24:83:08:bc:
                    5b:f9:29:84:04:fd:c3:46:58:f9:05:71:a8:25:f7:
                    70:52:8a:27:45:7a:38:92:21:17:d4:89:21:ed:39:
                    fa:c2:a0:c9:31:d1:cf:5b:46:0b:d1:1e:0a:dc:ba:
                    79:93:97:68:3f:65:84:09:b4:84:00:c0:88:8f:3a:
                    15:c5:d7:d4:60:cb:54:da:bb:84:45:65:6d:ae:c1:
                    6e:30:c4:25:1d:a1:8c:3c:5f:55:e9:f5:45:c9:10:
                    cc:8d:ac:94:26:e8:69:b0:12:e4:12:1b:e9:40:5b:
                    a9:39:c3:fe:e4:fd:c7:0a:56:3f:94:70:cd:68:bc:
                    63:3b:10:f9:4c:33:a3:60:af:93:ab:df:34:6b:68:
                    9b:3f:7d:21:1f:2b:07:4e:9f:04:99:ce:79:63:ef:
                    69:e9:db:88:83:a6:63:09:02:bd:96:6d:e2:7b:e6:
                    fa:11:86:58:95:ae:4c:88:7c:a7:18:76:4a:ed:f7:
                    6a:e5:a9:c1:c3:92:27:22:59:82:2f:9b:fb:fc:f0:
                    56:97
                Exponent: 65537 (0x10001)
        X509v3 extensions:
            X509v3 Basic Constraints: 
                CA:FALSE
            X509v3 Subject Key Identifier: 
                0A:F4:A6:0A:17:DC:7C:1B:F6:0E:68:D9:7C:D6:C2:B5:FE:D6:F2:55
            X509v3 Authority Key Identifier: 
                keyid:7D:20:1E:69:D8:E6:04:92:60:0A:25:CD:23:70:16:D1:01:E0:EB:01
                DirName:/CN=openvpnServer
                serial:C8:D0:7A:02:7F:17:7B:26

            X509v3 Extended Key Usage: 
                TLS Web Client Authentication
            X509v3 Key Usage: 
                Digital Signature
    Signature Algorithm: sha256WithRSAEncryption
         a8:b7:0a:bc:c8:a6:c9:24:70:d5:64:5b:d8:98:b9:69:9d:13:
         d1:f3:09:31:46:51:6a:60:57:bb:69:35:ff:dd:11:cf:43:1d:
         45:12:b9:62:43:2e:0f:29:77:b1:9b:fc:cb:0b:b0:15:c6:36:
         a5:3b:78:a5:15:35:cd:c0:64:53:db:35:13:ad:87:95:96:ab:
         3f:84:82:35:8c:26:0b:44:a6:85:39:f4:0d:88:0f:ad:c8:a3:
         05:3f:cc:89:ea:82:2e:b3:98:e1:21:ba:c3:7a:ab:15:1d:69:
         80:e0:05:46:48:aa:24:8f:b0:2b:7b:87:40:c4:d3:0e:d1:1d:
         b2:c4:0c:ff:a5:cc:9d:cc:83:3d:55:4e:0c:e0:fc:b1:03:51:
         d1:4f:ff:2e:df:15:7c:1f:cd:ac:4b:59:7c:bb:af:ad:a1:ae:
         b4:3e:9c:ea:75:a3:72:3e:cb:72:e4:e3:bc:0c:06:9f:56:da:
         4c:34:62:4e:17:f2:65:5d:a4:7a:49:0b:15:a3:fb:6b:b2:c6:
         76:b8:ff:27:26:39:fb:92:d1:ff:be:ca:2f:05:da:88:9f:d9:
         45:a6:55:dd:15:0d:8b:9f:3d:eb:31:5c:2c:56:ed:d5:3b:6d:
         70:5f:ac:6b:74:c9:a6:a6:fb:ab:d3:4b:f0:66:ba:a5:53:d9:
         90:b1:34:99
-----BEGIN CERTIFICATE-----
MIIDTjCCAjagAwIBAgIQQCwHhEuStbVQuI9Vzv2l6DANBgkqhkiG9w0BAQsFADAY
MRYwFAYDVQQDDA1vcGVudnBuU2VydmVyMB4XDTE5MDcwMzE0MTAwNloXDTI5MDYz
MDE0MTAwNlowEjEQMA4GA1UEAwwHY2xpZW50MjCCASIwDQYJKoZIhvcNAQEBBQAD
ggEPADCCAQoCggEBAK7CNBpr+Rxw7UkLC7XYQWM1vTaOk0FIo10PvTO7pne2gPMs
MzULr14L7NoqUrtDPGnf3UfRVYgkgwi8W/kphAT9w0ZY+QVxqCX3cFKKJ0V6OJIh
F9SJIe05+sKgyTHRz1tGC9EeCty6eZOXaD9lhAm0hADAiI86FcXX1GDLVNq7hEVl
ba7BbjDEJR2hjDxfVen1RckQzI2slCboabAS5BIb6UBbqTnD/uT9xwpWP5RwzWi8
YzsQ+Uwzo2Cvk6vfNGtomz99IR8rB06fBJnOeWPvaenbiIOmYwkCvZZt4nvm+hGG
WJWuTIh8pxh2Su33auWpwcOSJyJZgi+b+/zwVpcCAwEAAaOBmTCBljAJBgNVHRME
AjAAMB0GA1UdDgQWBBQK9KYKF9x8G/YOaNl81sK1/tbyVTBIBgNVHSMEQTA/gBR9
IB5p2OYEkmAKJc0jcBbRAeDrAaEcpBowGDEWMBQGA1UEAwwNb3BlbnZwblNlcnZl
coIJAMjQegJ/F3smMBMGA1UdJQQMMAoGCCsGAQUFBwMCMAsGA1UdDwQEAwIHgDAN
BgkqhkiG9w0BAQsFAAOCAQEAqLcKvMimySRw1WRb2Ji5aZ0T0fMJMUZRamBXu2k1
/90Rz0MdRRK5YkMuDyl3sZv8ywuwFcY2pTt4pRU1zcBkU9s1E62HlZarP4SCNYwm
C0SmhTn0DYgPrcijBT/MieqCLrOY4SG6w3qrFR1pgOAFRkiqJI+wK3uHQMTTDtEd
ssQM/6XMncyDPVVODOD8sQNR0U//Lt8VfB/NrEtZfLuvraGutD6c6nWjcj7LcuTj
vAwGn1baTDRiThfyZV2kekkLFaP7a7LGdrj/JyY5+5LR/77KLwXaiJ/ZRaZV3RUN
i5896zFcLFbt1TttcF+sa3TJpqb7q9NL8Ga6pVPZkLE0mQ==
-----END CERTIFICATE-----
